; Function Attrs: nounwind uwtable
define ptr @SSL_get0_listener(ptr noundef %0) local_unnamed_addr #0 {
  %.not = icmp eq ptr %0, null
  br i1 %.not, label %7, label %2

2:                                                ; preds = %1
  %3 = load i32, ptr %0, align 8, !tbaa !19
  %4 = and i32 %3, 128
  %.not5 = icmp eq i32 %4, 0
  br i1 %.not5, label %7, label %5

5:                                                ; preds = %2
  %6 = tail call ptr @ossl_quic_get0_listener(ptr noundef nonnull %0) #20
  br label %7

7:                                                ; preds = %1, %2, %5
  %.0 = phi ptr [ %6, %5 ], [ null, %2 ], [ null, %1 ]
  ret ptr %.0
}